target datalayout = "e-m:e-p270:32:32-p271:32:32-p272:64:64-i64:64-i128:128-f80:128-n8:16:32:64-S128"
target triple = "x86_64-pc-linux-gnu"

%struct.AVFormatContext = type { ptr, ptr, ptr, ptr, ptr, i32, i32, ptr, i32, ptr, i32, ptr, ptr, i64, i64, i64, i32, i32, i32, i64, i64, ptr, i32, i32, ptr, i32, i32, i32, i32, ptr, i64, i32, i32, %struct.AVIOInterruptCB, i32, i32, i32, i32, i64, i32, i32, i32, i32, i32, i32, i32, i32, i32, i32, i32, i32, i64, i32, i32, i32, i32, i32, ptr, ptr, ptr, ptr, i32, ptr, ptr, ptr, ptr, i32, ptr, ptr, i64, ptr, ptr, ptr, i64 }
%struct.AVIOInterruptCB = type { ptr, ptr }
%struct.AVPacket = type { ptr, i64, i64, ptr, i32, i32, i32, ptr, i32, i64, i64, ptr, ptr, %struct.AVRational }
%struct.AVRational = type { i32, i32 }
%struct.AVStream = type { ptr, i32, i32, ptr, ptr, %struct.AVRational, i64, i64, i64, i32, i32, %struct.AVRational, ptr, %struct.AVRational, %struct.AVPacket, i32, %struct.AVRational, i32 }
%struct.MXFStreamContext = type { i64, [16 x i8], i32, ptr, ptr, i32, i32, i32, i32, i32, i32, i32, i32, i32, %struct.AVRational, i32, i32, i32, i32, i32, i32, i32, i32, i32, i32, %struct.j2k_info_t }
%struct.j2k_info_t = type { i16, i16, i32, i32, i32, i32, i32, i32, i32, i32, [12 x i8] }
%struct.AVCodecParameters = type { i32, i32, i32, ptr, i32, ptr, i32, i32, i64, i32, i32, i32, i32, i32, i32, %struct.AVRational, %struct.AVRational, i32, i32, i32, i32, i32, i32, i32, %struct.AVChannelLayout, i32, i32, i32, i32, i32, i32 }
%struct.AVChannelLayout = type { i32, i32, %union.anon.0, ptr }
%union.anon.0 = type { i64 }
%struct.AVPixFmtDescriptor = type { ptr, i8, i8, i8, i64, [4 x %struct.AVComponentDescriptor], ptr }
%struct.AVComponentDescriptor = type { i32, i32, i32, i32, i32 }

@uuid_base = internal constant [10 x i8] c"\AD\ABD$/%M\C7\92\FF", align 1
@mxf_cdci_descriptor_key = internal constant [16 x i8] c"\06\0E+4\02S\01\01\0D\01\01\01\01\01(\00", align 16
@.str.82 = private unnamed_addr constant [58 x i8] c"Pixel format not set - not writing JPEG2000SubDescriptor\0A\00", align 1
@mxf_jpeg2000_subdescriptor_key = internal constant [16 x i8] c"\06\0E+4\02S\01\01\0D\01\01\01\01\01Z\00", align 16

; Function Attrs: nounwind uwtable
define internal void @mxf_write_uuid(ptr noundef %0, i32 noundef %1, i32 noundef %2) #0 {
  %4 = alloca ptr, align 8
  %5 = alloca i32, align 4
  %6 = alloca i32, align 4
  store ptr %0, ptr %4, align 8, !tbaa !31
  store i32 %1, ptr %5, align 4, !tbaa !57
  store i32 %2, ptr %6, align 4, !tbaa !57
  %7 = load ptr, ptr %4, align 8, !tbaa !31
  call void @avio_write(ptr noundef %7, ptr noundef @uuid_base, i32 noundef 10)
  %8 = load ptr, ptr %4, align 8, !tbaa !31
  %9 = load i32, ptr %5, align 4, !tbaa !57
  call void @avio_wb16(ptr noundef %8, i32 noundef %9)
  %10 = load ptr, ptr %4, align 8, !tbaa !31
  %11 = load i32, ptr %6, align 4, !tbaa !57
  call void @avio_wb32(ptr noundef %10, i32 noundef %11)
  ret void
}

; Function Attrs: nounwind uwtable
define internal void @klv_encode_ber4_length(ptr noundef %0, i32 noundef %1) #0 {
  %3 = alloca ptr, align 8
  %4 = alloca i32, align 4
  store ptr %0, ptr %3, align 8, !tbaa !31
  store i32 %1, ptr %4, align 4, !tbaa !57
  %5 = load ptr, ptr %3, align 8, !tbaa !31
  call void @avio_w8(ptr noundef %5, i32 noundef 131)
  %6 = load ptr, ptr %3, align 8, !tbaa !31
  %7 = load i32, ptr %4, align 4, !tbaa !57
  call void @avio_wb24(ptr noundef %6, i32 noundef %7)
  ret void
}

; Function Attrs: alwaysinline nounwind uwtable
define internal i64 @avio_tell(ptr noundef %0) #8 {
  %2 = alloca ptr, align 8
  store ptr %0, ptr %2, align 8, !tbaa !31
  %3 = load ptr, ptr %2, align 8, !tbaa !31
  %4 = call i64 @avio_seek(ptr noundef %3, i64 noundef 0, i32 noundef 1)
  ret i64 %4
}

; Function Attrs: nounwind uwtable
define internal i32 @mxf_write_jpeg2000_subdesc(ptr noundef %0, ptr noundef %1) #0 {
  %3 = alloca i32, align 4
  %4 = alloca ptr, align 8
  %5 = alloca ptr, align 8
  %6 = alloca ptr, align 8
  %7 = alloca ptr, align 8
  %8 = alloca i64, align 8
  %9 = alloca ptr, align 8
  %10 = alloca i32, align 4
  store ptr %0, ptr %4, align 8, !tbaa !4
  store ptr %1, ptr %5, align 8, !tbaa !38
  call void @llvm.lifetime.start.p0(i64 8, ptr %6) #13
  %11 = load ptr, ptr %5, align 8, !tbaa !38
  %12 = getelementptr inbounds nuw %struct.AVStream, ptr %11, i32 0, i32 4
  %13 = load ptr, ptr %12, align 8, !tbaa !40
  store ptr %13, ptr %6, align 8, !tbaa !43
  call void @llvm.lifetime.start.p0(i64 8, ptr %7) #13
  %14 = load ptr, ptr %4, align 8, !tbaa !4
  %15 = getelementptr inbounds nuw %struct.AVFormatContext, ptr %14, i32 0, i32 4
  %16 = load ptr, ptr %15, align 8, !tbaa !30
  store ptr %16, ptr %7, align 8, !tbaa !31
  call void @llvm.lifetime.start.p0(i64 8, ptr %8) #13
  call void @llvm.lifetime.start.p0(i64 8, ptr %9) #13
  %17 = load ptr, ptr %5, align 8, !tbaa !38
  %18 = getelementptr inbounds nuw %struct.AVStream, ptr %17, i32 0, i32 3
  %19 = load ptr, ptr %18, align 8, !tbaa !58
  %20 = getelementptr inbounds nuw %struct.AVCodecParameters, ptr %19, i32 0, i32 7
  %21 = load i32, ptr %20, align 4, !tbaa !91
  %22 = call ptr @av_pix_fmt_desc_get(i32 noundef %21)
  store ptr %22, ptr %9, align 8, !tbaa !92
  %23 = load ptr, ptr %9, align 8, !tbaa !92
  %24 = icmp ne ptr %23, null
  br i1 %24, label %27, label %25

25:                                               ; preds = %2
  %26 = load ptr, ptr %4, align 8, !tbaa !4
  call void (ptr, i32, ptr, ...) @av_log(ptr noundef %26, i32 noundef 16, ptr noundef @.str.82)
  store i32 -22, ptr %3, align 4
  store i32 1, ptr %10, align 4
  br label %122

27:                                               ; preds = %2
  %28 = load ptr, ptr %7, align 8, !tbaa !31
  call void @avio_write(ptr noundef %28, ptr noundef @mxf_jpeg2000_subdescriptor_key, i32 noundef 16)
  %29 = load ptr, ptr %7, align 8, !tbaa !31
  call void @klv_encode_ber4_length(ptr noundef %29, i32 noundef 0)
  %30 = load ptr, ptr %7, align 8, !tbaa !31
  %31 = call i64 @avio_tell(ptr noundef %30)
  store i64 %31, ptr %8, align 8, !tbaa !80
  %32 = load ptr, ptr %4, align 8, !tbaa !4
  call void @mxf_write_local_tag(ptr noundef %32, i32 noundef 16, i32 noundef 15370)
  %33 = load ptr, ptr %7, align 8, !tbaa !31
  call void @mxf_write_uuid(ptr noundef %33, i32 noundef 25, i32 noundef 0)
  %34 = load ptr, ptr %4, align 8, !tbaa !4
  call void @mxf_write_local_tag(ptr noundef %34, i32 noundef 2, i32 noundef 33793)
  %35 = load ptr, ptr %7, align 8, !tbaa !31
  %36 = load ptr, ptr %6, align 8, !tbaa !43
  %37 = getelementptr inbounds nuw %struct.MXFStreamContext, ptr %36, i32 0, i32 25
  %38 = getelementptr inbounds nuw %struct.j2k_info_t, ptr %37, i32 0, i32 1
  %39 = load i16, ptr %38, align 2, !tbaa !292
  %40 = zext i16 %39 to i32
  call void @avio_wb16(ptr noundef %35, i32 noundef %40)
  %41 = load ptr, ptr %4, align 8, !tbaa !4
  call void @mxf_write_local_tag(ptr noundef %41, i32 noundef 4, i32 noundef 33794)
  %42 = load ptr, ptr %7, align 8, !tbaa !31
  %43 = load ptr, ptr %5, align 8, !tbaa !38
  %44 = getelementptr inbounds nuw %struct.AVStream, ptr %43, i32 0, i32 3
  %45 = load ptr, ptr %44, align 8, !tbaa !58
  %46 = getelementptr inbounds nuw %struct.AVCodecParameters, ptr %45, i32 0, i32 13
  %47 = load i32, ptr %46, align 8, !tbaa !105
  call void @avio_wb32(ptr noundef %42, i32 noundef %47)
  %48 = load ptr, ptr %4, align 8, !tbaa !4
  call void @mxf_write_local_tag(ptr noundef %48, i32 noundef 4, i32 noundef 33795)
  %49 = load ptr, ptr %7, align 8, !tbaa !31
  %50 = load ptr, ptr %5, align 8, !tbaa !38
  %51 = getelementptr inbounds nuw %struct.AVStream, ptr %50, i32 0, i32 3
  %52 = load ptr, ptr %51, align 8, !tbaa !58
  %53 = getelementptr inbounds nuw %struct.AVCodecParameters, ptr %52, i32 0, i32 14
  %54 = load i32, ptr %53, align 4, !tbaa !106
  call void @avio_wb32(ptr noundef %49, i32 noundef %54)
  %55 = load ptr, ptr %4, align 8, !tbaa !4
  call void @mxf_write_local_tag(ptr noundef %55, i32 noundef 4, i32 noundef 33796)
  %56 = load ptr, ptr %7, align 8, !tbaa !31
  %57 = load ptr, ptr %6, align 8, !tbaa !43
  %58 = getelementptr inbounds nuw %struct.MXFStreamContext, ptr %57, i32 0, i32 25
  %59 = getelementptr inbounds nuw %struct.j2k_info_t, ptr %58, i32 0, i32 4
  %60 = load i32, ptr %59, align 4, !tbaa !185
  call void @avio_wb32(ptr noundef %56, i32 noundef %60)
  %61 = load ptr, ptr %4, align 8, !tbaa !4
  call void @mxf_write_local_tag(ptr noundef %61, i32 noundef 4, i32 noundef 33797)
  %62 = load ptr, ptr %7, align 8, !tbaa !31
  %63 = load ptr, ptr %6, align 8, !tbaa !43
  %64 = getelementptr inbounds nuw %struct.MXFStreamContext, ptr %63, i32 0, i32 25
  %65 = getelementptr inbounds nuw %struct.j2k_info_t, ptr %64, i32 0, i32 5
  %66 = load i32, ptr %65, align 4, !tbaa !186
  call void @avio_wb32(ptr noundef %62, i32 noundef %66)
  %67 = load ptr, ptr %4, align 8, !tbaa !4
  call void @mxf_write_local_tag(ptr noundef %67, i32 noundef 4, i32 noundef 33798)
  %68 = load ptr, ptr %7, align 8, !tbaa !31
  %69 = load ptr, ptr %6, align 8, !tbaa !43
  %70 = getelementptr inbounds nuw %struct.MXFStreamContext, ptr %69, i32 0, i32 25
  %71 = getelementptr inbounds nuw %struct.j2k_info_t, ptr %70, i32 0, i32 6
  %72 = load i32, ptr %71, align 4, !tbaa !187
  call void @avio_wb32(ptr noundef %68, i32 noundef %72)
  %73 = load ptr, ptr %4, align 8, !tbaa !4
  call void @mxf_write_local_tag(ptr noundef %73, i32 noundef 4, i32 noundef 33799)
  %74 = load ptr, ptr %7, align 8, !tbaa !31
  %75 = load ptr, ptr %6, align 8, !tbaa !43
  %76 = getelementptr inbounds nuw %struct.MXFStreamContext, ptr %75, i32 0, i32 25
  %77 = getelementptr inbounds nuw %struct.j2k_info_t, ptr %76, i32 0, i32 7
  %78 = load i32, ptr %77, align 4, !tbaa !188
  call void @avio_wb32(ptr noundef %74, i32 noundef %78)
  %79 = load ptr, ptr %4, align 8, !tbaa !4
  call void @mxf_write_local_tag(ptr noundef %79, i32 noundef 4, i32 noundef 33800)
  %80 = load ptr, ptr %7, align 8, !tbaa !31
  %81 = load ptr, ptr %6, align 8, !tbaa !43
  %82 = getelementptr inbounds nuw %struct.MXFStreamContext, ptr %81, i32 0, i32 25
  %83 = getelementptr inbounds nuw %struct.j2k_info_t, ptr %82, i32 0, i32 8
  %84 = load i32, ptr %83, align 4, !tbaa !189
  call void @avio_wb32(ptr noundef %80, i32 noundef %84)
  %85 = load ptr, ptr %4, align 8, !tbaa !4
  call void @mxf_write_local_tag(ptr noundef %85, i32 noundef 4, i32 noundef 33801)
  %86 = load ptr, ptr %7, align 8, !tbaa !31
  %87 = load ptr, ptr %6, align 8, !tbaa !43
  %88 = getelementptr inbounds nuw %struct.MXFStreamContext, ptr %87, i32 0, i32 25
  %89 = getelementptr inbounds nuw %struct.j2k_info_t, ptr %88, i32 0, i32 9
  %90 = load i32, ptr %89, align 4, !tbaa !190
  call void @avio_wb32(ptr noundef %86, i32 noundef %90)
  %91 = load ptr, ptr %4, align 8, !tbaa !4
  call void @mxf_write_local_tag(ptr noundef %91, i32 noundef 2, i32 noundef 33802)
  %92 = load ptr, ptr %7, align 8, !tbaa !31
  %93 = load ptr, ptr %9, align 8, !tbaa !92
  %94 = getelementptr inbounds nuw %struct.AVPixFmtDescriptor, ptr %93, i32 0, i32 1
  %95 = load i8, ptr %94, align 8, !tbaa !191
  %96 = zext i8 %95 to i32
  call void @avio_wb16(ptr noundef %92, i32 noundef %96)
  %97 = load ptr, ptr %4, align 8, !tbaa !4
  %98 = load ptr, ptr %9, align 8, !tbaa !92
  %99 = getelementptr inbounds nuw %struct.AVPixFmtDescriptor, ptr %98, i32 0, i32 1
  %100 = load i8, ptr %99, align 8, !tbaa !191
  %101 = zext i8 %100 to i32
  %102 = mul nsw i32 3, %101
  %103 = add nsw i32 8, %102
  call void @mxf_write_local_tag(ptr noundef %97, i32 noundef %103, i32 noundef 33803)
  %104 = load ptr, ptr %7, align 8, !tbaa !31
  %105 = load ptr, ptr %9, align 8, !tbaa !92
  %106 = getelementptr inbounds nuw %struct.AVPixFmtDescriptor, ptr %105, i32 0, i32 1
  %107 = load i8, ptr %106, align 8, !tbaa !191
  %108 = zext i8 %107 to i32
  call void @avio_wb32(ptr noundef %104, i32 noundef %108)
  %109 = load ptr, ptr %7, align 8, !tbaa !31
  call void @avio_wb32(ptr noundef %109, i32 noundef 3)
  %110 = load ptr, ptr %7, align 8, !tbaa !31
  %111 = load ptr, ptr %6, align 8, !tbaa !43
  %112 = getelementptr inbounds nuw %struct.MXFStreamContext, ptr %111, i32 0, i32 25
  %113 = getelementptr inbounds nuw %struct.j2k_info_t, ptr %112, i32 0, i32 10
  %114 = getelementptr inbounds [12 x i8], ptr %113, i64 0, i64 0
  %115 = load ptr, ptr %9, align 8, !tbaa !92
  %116 = getelementptr inbounds nuw %struct.AVPixFmtDescriptor, ptr %115, i32 0, i32 1
  %117 = load i8, ptr %116, align 8, !tbaa !191
  %118 = zext i8 %117 to i32
  %119 = mul nsw i32 3, %118
  call void @avio_write(ptr noundef %110, ptr noundef %114, i32 noundef %119)
  %120 = load ptr, ptr %7, align 8, !tbaa !31
  %121 = load i64, ptr %8, align 8, !tbaa !80
  call void @mxf_update_klv_size(ptr noundef %120, i64 noundef %121)
  store i32 0, ptr %3, align 4
  store i32 1, ptr %10, align 4
  br label %122

122:                                              ; preds = %27, %25
  call void @llvm.lifetime.end.p0(i64 8, ptr %9) #13
  call void @llvm.lifetime.end.p0(i64 8, ptr %8) #13
  call void @llvm.lifetime.end.p0(i64 8, ptr %7) #13
  call void @llvm.lifetime.end.p0(i64 8, ptr %6) #13
  %123 = load i32, ptr %3, align 4
  ret i32 %123
}

; Function Attrs: nounwind uwtable
define internal void @mxf_update_klv_size(ptr noundef %0, i64 noundef %1) #0 {
  %3 = alloca ptr, align 8
  %4 = alloca i64, align 8
  %5 = alloca i64, align 8
  %6 = alloca i32, align 4
  store ptr %0, ptr %3, align 8, !tbaa !31
  store i64 %1, ptr %4, align 8, !tbaa !80
  call void @llvm.lifetime.start.p0(i64 8, ptr %5) #13
  %7 = load ptr, ptr %3, align 8, !tbaa !31
  %8 = call i64 @avio_tell(ptr noundef %7)
  store i64 %8, ptr %5, align 8, !tbaa !80
  call void @llvm.lifetime.start.p0(i64 4, ptr %6) #13
  %9 = load i64, ptr %5, align 8, !tbaa !80
  %10 = load i64, ptr %4, align 8, !tbaa !80
  %11 = sub nsw i64 %9, %10
  %12 = trunc i64 %11 to i32
  store i32 %12, ptr %6, align 4, !tbaa !57
  %13 = load ptr, ptr %3, align 8, !tbaa !31
  %14 = load i64, ptr %4, align 8, !tbaa !80
  %15 = sub nsw i64 %14, 4
  %16 = call i64 @avio_seek(ptr noundef %13, i64 noundef %15, i32 noundef 0)
  %17 = load ptr, ptr %3, align 8, !tbaa !31
  %18 = load i32, ptr %6, align 4, !tbaa !57
  call void @klv_encode_ber4_length(ptr noundef %17, i32 noundef %18)
  %19 = load ptr, ptr %3, align 8, !tbaa !31
  %20 = load i64, ptr %5, align 8, !tbaa !80
  %21 = call i64 @avio_seek(ptr noundef %19, i64 noundef %20, i32 noundef 0)
  call void @llvm.lifetime.end.p0(i64 4, ptr %6) #13
  call void @llvm.lifetime.end.p0(i64 8, ptr %5) #13
  ret void
}

; Function Attrs: nounwind uwtable
define internal i32 @mxf_write_cdci_desc(ptr noundef %0, ptr noundef %1) #0 {
  %3 = alloca i32, align 4
  %4 = alloca ptr, align 8
  %5 = alloca ptr, align 8
  %6 = alloca i64, align 8
  %7 = alloca i32, align 4
  store ptr %0, ptr %4, align 8, !tbaa !4
  store ptr %1, ptr %5, align 8, !tbaa !38
  call void @llvm.lifetime.start.p0(i64 8, ptr %6) #13
  %8 = load ptr, ptr %4, align 8, !tbaa !4
  %9 = load ptr, ptr %5, align 8, !tbaa !38
  %10 = call i64 @mxf_write_cdci_common(ptr noundef %8, ptr noundef %9, ptr noundef @mxf_cdci_descriptor_key)
  store i64 %10, ptr %6, align 8, !tbaa !80
  %11 = load ptr, ptr %4, align 8, !tbaa !4
  %12 = getelementptr inbounds nuw %struct.AVFormatContext, ptr %11, i32 0, i32 4
  %13 = load ptr, ptr %12, align 8, !tbaa !30
  %14 = load i64, ptr %6, align 8, !tbaa !80
  call void @mxf_update_klv_size(ptr noundef %13, i64 noundef %14)
  %15 = load ptr, ptr %5, align 8, !tbaa !38
  %16 = getelementptr inbounds nuw %struct.AVStream, ptr %15, i32 0, i32 3
  %17 = load ptr, ptr %16, align 8, !tbaa !58
  %18 = getelementptr inbounds nuw %struct.AVCodecParameters, ptr %17, i32 0, i32 1
  %19 = load i32, ptr %18, align 4, !tbaa !59
  %20 = icmp eq i32 %19, 27
  br i1 %20, label %21, label %24

21:                                               ; preds = %2
  %22 = load ptr, ptr %4, align 8, !tbaa !4
  %23 = load ptr, ptr %5, align 8, !tbaa !38
  call void @mxf_write_avc_subdesc(ptr noundef %22, ptr noundef %23)
  br label %24

24:                                               ; preds = %21, %2
  %25 = load ptr, ptr %5, align 8, !tbaa !38
  %26 = getelementptr inbounds nuw %struct.AVStream, ptr %25, i32 0, i32 3
  %27 = load ptr, ptr %26, align 8, !tbaa !58
  %28 = getelementptr inbounds nuw %struct.AVCodecParameters, ptr %27, i32 0, i32 1
  %29 = load i32, ptr %28, align 4, !tbaa !59
  %30 = icmp eq i32 %29, 88
  br i1 %30, label %31, label %35

31:                                               ; preds = %24
  %32 = load ptr, ptr %4, align 8, !tbaa !4
  %33 = load ptr, ptr %5, align 8, !tbaa !38
  %34 = call i32 @mxf_write_jpeg2000_subdesc(ptr noundef %32, ptr noundef %33)
  store i32 %34, ptr %3, align 4
  store i32 1, ptr %7, align 4
  br label %36

35:                                               ; preds = %24
  store i32 0, ptr %3, align 4
  store i32 1, ptr %7, align 4
  br label %36

36:                                               ; preds = %35, %31
  call void @llvm.lifetime.end.p0(i64 8, ptr %6) #13
  %37 = load i32, ptr %3, align 4
  ret i32 %37
}