; Function Attrs: nounwind uwtable
define internal range(i32 -22, 1) i32 @mxf_write_cdci_desc(ptr noundef %0, ptr noundef readonly captures(none) %1) #0 {
  %3 = tail call fastcc i64 @mxf_write_cdci_common(ptr noundef %0, ptr noundef %1, ptr noundef nonnull @mxf_cdci_descriptor_key)
  %4 = getelementptr inbounds nuw i8, ptr %0, i64 32
  %5 = load ptr, ptr %4, align 8, !tbaa !24
  %6 = tail call i64 @avio_seek(ptr noundef %5, i64 noundef 0, i32 noundef 1) #14
  %7 = sub nsw i64 %6, %3
  %8 = trunc i64 %7 to i32
  %9 = add nsw i64 %3, -4
  %10 = tail call i64 @avio_seek(ptr noundef %5, i64 noundef %9, i32 noundef 0) #14
  tail call void @avio_w8(ptr noundef %5, i32 noundef 131) #14
  tail call void @avio_wb24(ptr noundef %5, i32 noundef %8) #14
  %11 = tail call i64 @avio_seek(ptr noundef %5, i64 noundef %6, i32 noundef 0) #14
  %12 = getelementptr inbounds nuw i8, ptr %1, i64 16
  %13 = load ptr, ptr %12, align 8, !tbaa !48
  %14 = getelementptr inbounds nuw i8, ptr %13, i64 4
  %15 = load i32, ptr %14, align 4, !tbaa !49
  %16 = icmp eq i32 %15, 27
  br i1 %16, label %17, label %18

17:                                               ; preds = %2
  tail call fastcc void @mxf_write_avc_subdesc(ptr noundef nonnull %0, ptr noundef nonnull %1)
  %.pre = load ptr, ptr %12, align 8, !tbaa !48
  %.phi.trans.insert = getelementptr inbounds nuw i8, ptr %.pre, i64 4
  %.pre10 = load i32, ptr %.phi.trans.insert, align 4, !tbaa !49
  br label %18

18:                                               ; preds = %17, %2
  %19 = phi i32 [ %.pre10, %17 ], [ %15, %2 ]
  %20 = phi ptr [ %.pre, %17 ], [ %13, %2 ]
  %21 = icmp eq i32 %19, 88
  br i1 %21, label %22, label %mxf_write_jpeg2000_subdesc.exit

22:                                               ; preds = %18
  %23 = getelementptr inbounds nuw i8, ptr %1, i64 24
  %24 = load ptr, ptr %23, align 8, !tbaa !33
  %25 = load ptr, ptr %4, align 8, !tbaa !24
  %26 = getelementptr inbounds nuw i8, ptr %20, i64 44
  %27 = load i32, ptr %26, align 4, !tbaa !106
  %28 = tail call ptr @av_pix_fmt_desc_get(i32 noundef %27) #14
  %.not.i = icmp eq ptr %28, null
  br i1 %.not.i, label %29, label %30

29:                                               ; preds = %22
  tail call void (ptr, i32, ptr, ...) @av_log(ptr noundef nonnull %0, i32 noundef 16, ptr noundef nonnull @.str.82) #14
  br label %mxf_write_jpeg2000_subdesc.exit

30:                                               ; preds = %22
  tail call void @avio_write(ptr noundef %25, ptr noundef nonnull @mxf_jpeg2000_subdescriptor_key, i32 noundef 16) #14
  tail call void @avio_w8(ptr noundef %25, i32 noundef 131) #14
  tail call void @avio_wb24(ptr noundef %25, i32 noundef 0) #14
  %31 = tail call i64 @avio_seek(ptr noundef %25, i64 noundef 0, i32 noundef 1) #14
  %32 = getelementptr i8, ptr %0, i64 24
  %.val72.i = load ptr, ptr %32, align 8, !tbaa !4
  %.val73.i = load ptr, ptr %4, align 8, !tbaa !24
  tail call fastcc void @mxf_write_local_tag(ptr %.val72.i, ptr %.val73.i, i32 noundef 16, i32 noundef 15370)
  tail call void @avio_write(ptr noundef %25, ptr noundef nonnull @uuid_base, i32 noundef 10) #14
  tail call void @avio_wb16(ptr noundef %25, i32 noundef 25) #14
  tail call void @avio_wb32(ptr noundef %25, i32 noundef 0) #14
  %.val70.i = load ptr, ptr %32, align 8, !tbaa !4
  %.val71.i = load ptr, ptr %4, align 8, !tbaa !24
  tail call fastcc void @mxf_write_local_tag(ptr %.val70.i, ptr %.val71.i, i32 noundef 2, i32 noundef 33793)
  %33 = getelementptr inbounds nuw i8, ptr %24, i64 134
  %34 = load i16, ptr %33, align 2, !tbaa !267
  %35 = zext i16 %34 to i32
  tail call void @avio_wb16(ptr noundef %25, i32 noundef %35) #14
  %.val68.i = load ptr, ptr %32, align 8, !tbaa !4
  %.val69.i = load ptr, ptr %4, align 8, !tbaa !24
  tail call fastcc void @mxf_write_local_tag(ptr %.val68.i, ptr %.val69.i, i32 noundef 4, i32 noundef 33794)
  %36 = load ptr, ptr %12, align 8, !tbaa !48
  %37 = getelementptr inbounds nuw i8, ptr %36, i64 72
  %38 = load i32, ptr %37, align 8, !tbaa !63
  tail call void @avio_wb32(ptr noundef %25, i32 noundef %38) #14
  %.val66.i = load ptr, ptr %32, align 8, !tbaa !4
  %.val67.i = load ptr, ptr %4, align 8, !tbaa !24
  tail call fastcc void @mxf_write_local_tag(ptr %.val66.i, ptr %.val67.i, i32 noundef 4, i32 noundef 33795)
  %39 = load ptr, ptr %12, align 8, !tbaa !48
  %40 = getelementptr inbounds nuw i8, ptr %39, i64 76
  %41 = load i32, ptr %40, align 4, !tbaa !64
  tail call void @avio_wb32(ptr noundef %25, i32 noundef %41) #14
  %.val64.i = load ptr, ptr %32, align 8, !tbaa !4
  %.val65.i = load ptr, ptr %4, align 8, !tbaa !24
  tail call fastcc void @mxf_write_local_tag(ptr %.val64.i, ptr %.val65.i, i32 noundef 4, i32 noundef 33796)
  %42 = getelementptr inbounds nuw i8, ptr %24, i64 144
  %43 = load i32, ptr %42, align 4, !tbaa !111
  tail call void @avio_wb32(ptr noundef %25, i32 noundef %43) #14
  %.val62.i = load ptr, ptr %32, align 8, !tbaa !4
  %.val63.i = load ptr, ptr %4, align 8, !tbaa !24
  tail call fastcc void @mxf_write_local_tag(ptr %.val62.i, ptr %.val63.i, i32 noundef 4, i32 noundef 33797)
  %44 = getelementptr inbounds nuw i8, ptr %24, i64 148
  %45 = load i32, ptr %44, align 4, !tbaa !112
  tail call void @avio_wb32(ptr noundef %25, i32 noundef %45) #14
  %.val60.i = load ptr, ptr %32, align 8, !tbaa !4
  %.val61.i = load ptr, ptr %4, align 8, !tbaa !24
  tail call fastcc void @mxf_write_local_tag(ptr %.val60.i, ptr %.val61.i, i32 noundef 4, i32 noundef 33798)
  %46 = getelementptr inbounds nuw i8, ptr %24, i64 152
  %47 = load i32, ptr %46, align 4, !tbaa !113
  tail call void @avio_wb32(ptr noundef %25, i32 noundef %47) #14
  %.val58.i = load ptr, ptr %32, align 8, !tbaa !4
  %.val59.i = load ptr, ptr %4, align 8, !tbaa !24
  tail call fastcc void @mxf_write_local_tag(ptr %.val58.i, ptr %.val59.i, i32 noundef 4, i32 noundef 33799)
  %48 = getelementptr inbounds nuw i8, ptr %24, i64 156
  %49 = load i32, ptr %48, align 4, !tbaa !114
  tail call void @avio_wb32(ptr noundef %25, i32 noundef %49) #14
  %.val56.i = load ptr, ptr %32, align 8, !tbaa !4
  %.val57.i = load ptr, ptr %4, align 8, !tbaa !24
  tail call fastcc void @mxf_write_local_tag(ptr %.val56.i, ptr %.val57.i, i32 noundef 4, i32 noundef 33800)
  %50 = getelementptr inbounds nuw i8, ptr %24, i64 160
  %51 = load i32, ptr %50, align 4, !tbaa !115
  tail call void @avio_wb32(ptr noundef %25, i32 noundef %51) #14
  %.val54.i = load ptr, ptr %32, align 8, !tbaa !4
  %.val55.i = load ptr, ptr %4, align 8, !tbaa !24
  tail call fastcc void @mxf_write_local_tag(ptr %.val54.i, ptr %.val55.i, i32 noundef 4, i32 noundef 33801)
  %52 = getelementptr inbounds nuw i8, ptr %24, i64 164
  %53 = load i32, ptr %52, align 4, !tbaa !116
  tail call void @avio_wb32(ptr noundef %25, i32 noundef %53) #14
  %.val52.i = load ptr, ptr %32, align 8, !tbaa !4
  %.val53.i = load ptr, ptr %4, align 8, !tbaa !24
  tail call fastcc void @mxf_write_local_tag(ptr %.val52.i, ptr %.val53.i, i32 noundef 2, i32 noundef 33802)
  %54 = getelementptr inbounds nuw i8, ptr %28, i64 8
  %55 = load i8, ptr %54, align 8, !tbaa !117
  %56 = zext i8 %55 to i32
  tail call void @avio_wb16(ptr noundef %25, i32 noundef %56) #14
  %57 = load i8, ptr %54, align 8, !tbaa !117
  %58 = zext i8 %57 to i32
  %59 = mul nuw nsw i32 %58, 3
  %60 = add nuw nsw i32 %59, 8
  %.val.i = load ptr, ptr %32, align 8, !tbaa !4
  %.val51.i = load ptr, ptr %4, align 8, !tbaa !24
  tail call fastcc void @mxf_write_local_tag(ptr %.val.i, ptr %.val51.i, i32 noundef %60, i32 noundef 33803)
  %61 = load i8, ptr %54, align 8, !tbaa !117
  %62 = zext i8 %61 to i32
  tail call void @avio_wb32(ptr noundef %25, i32 noundef %62) #14
  tail call void @avio_wb32(ptr noundef %25, i32 noundef 3) #14
  %63 = getelementptr inbounds nuw i8, ptr %24, i64 168
  %64 = load i8, ptr %54, align 8, !tbaa !117
  %65 = zext i8 %64 to i32
  %66 = mul nuw nsw i32 %65, 3
  tail call void @avio_write(ptr noundef %25, ptr noundef nonnull %63, i32 noundef %66) #14
  %67 = tail call i64 @avio_seek(ptr noundef %25, i64 noundef 0, i32 noundef 1) #14
  %68 = sub nsw i64 %67, %31
  %69 = trunc i64 %68 to i32
  %70 = add nsw i64 %31, -4
  %71 = tail call i64 @avio_seek(ptr noundef %25, i64 noundef %70, i32 noundef 0) #14
  tail call void @avio_w8(ptr noundef %25, i32 noundef 131) #14
  tail call void @avio_wb24(ptr noundef %25, i32 noundef %69) #14
  %72 = tail call i64 @avio_seek(ptr noundef %25, i64 noundef %67, i32 noundef 0) #14
  br label %mxf_write_jpeg2000_subdesc.exit

mxf_write_jpeg2000_subdesc.exit:                  ; preds = %30, %29, %18
  %.0 = phi i32 [ 0, %18 ], [ 0, %30 ], [ -22, %29 ]
  ret i32 %.0
}